; ModuleID = 'source-C-CXX/21/608.c'
source_filename = "source-C-CXX/21/608.c"
target datalayout = "e-m:e-p270:32:32-p271:32:32-p272:64:64-i64:64-f80:128-n8:16:32:64-S128"
target triple = "x86_64-pc-linux-gnu"

@.str = private unnamed_addr constant [5 x i8] c"%d%c\00", align 1
@.str.1 = private unnamed_addr constant [3 x i8] c"%d\00", align 1
@.str.2 = private unnamed_addr constant [3 x i8] c"No\00", align 1

; Function Attrs: nofree nounwind sspstrong uwtable
define dso_local i32 @main() local_unnamed_addr #0 {
  %1 = alloca i8, align 1
  %2 = alloca [10000 x i32], align 16
  %3 = alloca i32, align 4
  call void @llvm.lifetime.start.p0i8(i64 1, i8* nonnull %1) #4
  %4 = bitcast [10000 x i32]* %2 to i8*
  call void @llvm.lifetime.start.p0i8(i64 40000, i8* nonnull %4) #4
  call void @llvm.memset.p0i8.i64(i8* noundef nonnull align 16 dereferenceable(40000) %4, i8 0, i64 40000, i1 false)
  %5 = bitcast i32* %3 to i8*
  call void @llvm.lifetime.start.p0i8(i64 4, i8* nonnull %5) #4
  %6 = call i32 (i8*, ...) @__isoc99_scanf(i8* getelementptr inbounds ([5 x i8], [5 x i8]* @.str, i64 0, i64 0), i32* nonnull %3, i8* nonnull %1)
  %7 = load i8, i8* %1, align 1, !tbaa !5
  %8 = icmp eq i8 %7, 44
  br i1 %8, label %9, label %16

9:                                                ; preds = %0, %9
  %10 = load i32, i32* %3, align 4, !tbaa !8
  %11 = sext i32 %10 to i64
  %12 = getelementptr inbounds [10000 x i32], [10000 x i32]* %2, i64 0, i64 %11
  store i32 1, i32* %12, align 4, !tbaa !8
  %13 = call i32 (i8*, ...) @__isoc99_scanf(i8* getelementptr inbounds ([5 x i8], [5 x i8]* @.str, i64 0, i64 0), i32* nonnull %3, i8* nonnull %1)
  %14 = load i8, i8* %1, align 1, !tbaa !5
  %15 = icmp eq i8 %14, 44
  br i1 %15, label %9, label %16, !llvm.loop !10

16:                                               ; preds = %9, %0
  %17 = load i32, i32* %3, align 4, !tbaa !8
  %18 = sext i32 %17 to i64
  %19 = getelementptr inbounds [10000 x i32], [10000 x i32]* %2, i64 0, i64 %18
  store i32 1, i32* %19, align 4, !tbaa !8
  br label %20

20:                                               ; preds = %45, %16
  %21 = phi i32 [ 9999, %16 ], [ %46, %45 ]
  %22 = phi i32 [ 0, %16 ], [ %40, %45 ]
  %23 = zext i32 %21 to i64
  %24 = getelementptr inbounds [10000 x i32], [10000 x i32]* %2, i64 0, i64 %23
  %25 = load i32, i32* %24, align 4, !tbaa !8
  %26 = icmp sgt i32 %25, 0
  %27 = zext i1 %26 to i32
  %28 = add nuw nsw i32 %22, %27
  %29 = icmp eq i32 %28, 2
  br i1 %29, label %30, label %33

30:                                               ; preds = %33, %20
  %31 = phi i32 [ %21, %20 ], [ %34, %33 ]
  %32 = call i32 (i8*, ...) @printf(i8* nonnull dereferenceable(1) getelementptr inbounds ([3 x i8], [3 x i8]* @.str.1, i64 0, i64 0), i32 %31)
  br label %44

33:                                               ; preds = %20
  %34 = add nsw i32 %21, -1
  %35 = zext i32 %34 to i64
  %36 = getelementptr inbounds [10000 x i32], [10000 x i32]* %2, i64 0, i64 %35
  %37 = load i32, i32* %36, align 4, !tbaa !8
  %38 = icmp sgt i32 %37, 0
  %39 = zext i1 %38 to i32
  %40 = add nuw nsw i32 %28, %39
  %41 = icmp eq i32 %40, 2
  br i1 %41, label %30, label %45

42:                                               ; preds = %45
  %43 = call i32 (i8*, ...) @printf(i8* nonnull dereferenceable(1) getelementptr inbounds ([3 x i8], [3 x i8]* @.str.2, i64 0, i64 0))
  br label %44

44:                                               ; preds = %42, %30
  call void @llvm.lifetime.end.p0i8(i64 4, i8* nonnull %5) #4
  call void @llvm.lifetime.end.p0i8(i64 40000, i8* nonnull %4) #4
  call void @llvm.lifetime.end.p0i8(i64 1, i8* nonnull %1) #4
  ret i32 0

45:                                               ; preds = %33
  %46 = add nsw i32 %21, -2
  %47 = icmp eq i32 %34, 0
  br i1 %47, label %42, label %20, !llvm.loop !12
}

; Function Attrs: argmemonly mustprogress nofree nosync nounwind willreturn
declare void @llvm.lifetime.start.p0i8(i64 immarg, i8* nocapture) #1

; Function Attrs: argmemonly mustprogress nofree nounwind willreturn writeonly
declare void @llvm.memset.p0i8.i64(i8* nocapture writeonly, i8, i64, i1 immarg) #2

; Function Attrs: nofree nounwind
declare noundef i32 @__isoc99_scanf(i8* nocapture noundef readonly, ...) local_unnamed_addr #3

; Function Attrs: nofree nounwind
declare noundef i32 @printf(i8* nocapture noundef readonly, ...) local_unnamed_addr #3

; Function Attrs: argmemonly mustprogress nofree nosync nounwind willreturn
declare void @llvm.lifetime.end.p0i8(i64 immarg, i8* nocapture) #1


!llvm.module.flags = !{!0, !1, !2, !3}
!llvm.ident = !{!4}

!0 = !{i32 1, !"wchar_size", i32 4}
!1 = !{i32 7, !"PIC Level", i32 2}
!2 = !{i32 7, !"PIE Level", i32 2}
!3 = !{i32 7, !"uwtable", i32 1}
!4 = !{!"clang version 13.0.0"}
!5 = !{!6, !6, i64 0}
!6 = !{!"omnipotent char", !7, i64 0}
!7 = !{!"Simple C/C++ TBAA"}
!8 = !{!9, !9, i64 0}
!9 = !{!"int", !6, i64 0}
!10 = distinct !{!10, !11}
!11 = !{!"llvm.loop.mustprogress"}
!12 = distinct !{!12, !11}
